; Function Attrs: mustprogress uwtable
define noundef i32 @_Z20gmx_mtop_ftype_countRK10gmx_mtop_ti(ptr noundef nonnull align 8 dereferenceable(768) %0, i32 noundef %1) local_unnamed_addr #3 {
  %3 = alloca %class.IListIterator, align 8
  %4 = alloca %class.IListIterator, align 8
  %5 = alloca %class.IListRange, align 8
  %6 = alloca %class.IListIterator, align 8
  %7 = alloca %class.IListProxy, align 8
  call void @llvm.lifetime.start.p0(i64 32, ptr nonnull %5) #20
  call void @_ZN10IListRangeC1ERK10gmx_mtop_t(ptr noundef nonnull align 8 dereferenceable(32) %5, ptr noundef nonnull align 8 dereferenceable(768) %0)
  call void @llvm.lifetime.start.p0(i64 16, ptr nonnull %6) #20
  call void @llvm.memcpy.p0.p0.i64(ptr noundef nonnull align 8 dereferenceable(16) %6, ptr noundef nonnull align 8 dereferenceable(16) %5, i64 16, i1 false)
  %8 = getelementptr inbounds nuw i8, ptr %5, i64 16
  %.sroa.03.0.copyload = load ptr, ptr %8, align 8
  %.sroa.4.0..sroa_idx = getelementptr inbounds nuw i8, ptr %5, i64 24
  %.sroa.4.0.copyload = load i64, ptr %.sroa.4.0..sroa_idx, align 8
  %.sroa.22.0..sroa_idx = getelementptr inbounds nuw i8, ptr %6, i64 8
  %9 = getelementptr inbounds nuw i8, ptr %3, i64 8
  %10 = getelementptr inbounds nuw i8, ptr %4, i64 8
  %.sroa.01.0.copyload9 = load ptr, ptr %6, align 8
  %.sroa.22.0.copyload10 = load i64, ptr %.sroa.22.0..sroa_idx, align 8
  call void @llvm.lifetime.start.p0(i64 16, ptr nonnull %3)
  call void @llvm.lifetime.start.p0(i64 16, ptr nonnull %4)
  store ptr %.sroa.01.0.copyload9, ptr %3, align 8
  store i64 %.sroa.22.0.copyload10, ptr %9, align 8
  store ptr %.sroa.03.0.copyload, ptr %4, align 8
  store i64 %.sroa.4.0.copyload, ptr %10, align 8
  %11 = call noundef zeroext i1 @_ZNK13IListIteratoreqERKS_(ptr noundef nonnull align 8 dereferenceable(16) %3, ptr noundef nonnull align 8 dereferenceable(16) %4)
  call void @llvm.lifetime.end.p0(i64 16, ptr nonnull %3)
  call void @llvm.lifetime.end.p0(i64 16, ptr nonnull %4)
  br i1 %11, label %._crit_edge, label %.lr.ph

.lr.ph:                                           ; preds = %2
  %12 = sext i32 %1 to i64
  %13 = getelementptr inbounds [95 x %struct.t_interaction_function], ptr @interaction_function, i64 0, i64 %12, i32 2
  br label %14

._crit_edge:                                      ; preds = %14, %2
  %.0.lcssa = phi i32 [ 0, %2 ], [ %30, %14 ]
  call void @llvm.lifetime.end.p0(i64 16, ptr nonnull %6) #20
  call void @llvm.lifetime.end.p0(i64 32, ptr nonnull %5) #20
  ret i32 %.0.lcssa

14:                                               ; preds = %.lr.ph, %14
  %.011 = phi i32 [ 0, %.lr.ph ], [ %30, %14 ]
  call void @llvm.lifetime.start.p0(i64 8, ptr nonnull %7) #20
  store ptr %6, ptr %7, align 8
  %15 = call noundef i32 @_ZNK10IListProxy4nmolEv(ptr noundef nonnull align 8 dereferenceable(8) %7)
  %16 = call noundef nonnull align 8 dereferenceable(2280) ptr @_ZNK10IListProxy4listEv(ptr noundef nonnull align 8 dereferenceable(8) %7)
  %17 = getelementptr inbounds nuw [95 x %struct.InteractionList], ptr %16, i64 0, i64 %12
  %18 = getelementptr inbounds nuw i8, ptr %17, i64 8
  %19 = load ptr, ptr %18, align 8, !tbaa !91
  %20 = load ptr, ptr %17, align 8, !tbaa !92
  %21 = ptrtoint ptr %19 to i64
  %22 = ptrtoint ptr %20 to i64
  %23 = sub i64 %21, %22
  %24 = lshr exact i64 %23, 2
  %25 = trunc i64 %24 to i32
  %26 = mul nsw i32 %15, %25
  %27 = load i32, ptr %13, align 16, !tbaa !93
  %28 = add nsw i32 %27, 1
  %29 = sdiv i32 %26, %28
  %30 = add nsw i32 %29, %.011
  call void @llvm.lifetime.end.p0(i64 8, ptr nonnull %7) #20
  %31 = call noundef nonnull align 8 dereferenceable(16) ptr @_ZN13IListIteratorppEv(ptr noundef nonnull align 8 dereferenceable(16) %6)
  %.sroa.01.0.copyload = load ptr, ptr %6, align 8
  %.sroa.22.0.copyload = load i64, ptr %.sroa.22.0..sroa_idx, align 8
  call void @llvm.lifetime.start.p0(i64 16, ptr nonnull %3)
  call void @llvm.lifetime.start.p0(i64 16, ptr nonnull %4)
  store ptr %.sroa.01.0.copyload, ptr %3, align 8
  store i64 %.sroa.22.0.copyload, ptr %9, align 8
  store ptr %.sroa.03.0.copyload, ptr %4, align 8
  store i64 %.sroa.4.0.copyload, ptr %10, align 8
  %32 = call noundef zeroext i1 @_ZNK13IListIteratoreqERKS_(ptr noundef nonnull align 8 dereferenceable(16) %3, ptr noundef nonnull align 8 dereferenceable(16) %4)
  call void @llvm.lifetime.end.p0(i64 16, ptr nonnull %3)
  call void @llvm.lifetime.end.p0(i64 16, ptr nonnull %4)
  br i1 %32, label %._crit_edge, label %14
}